target datalayout = "e-m:e-p270:32:32-p271:32:32-p272:64:64-i64:64-i128:128-f80:128-n8:16:32:64-S128"
target triple = "x86_64-pc-linux-gnu"

%union.ListCell = type { ptr }
%struct.QualCost = type { double, double }
%struct.PlannerInfo = type { i32, ptr, ptr, i32, ptr, ptr, ptr, ptr, i32, ptr, ptr, ptr, ptr, ptr, ptr, ptr, ptr, i32, ptr, ptr, ptr, ptr, ptr, i8, ptr, ptr, ptr, ptr, ptr, i32, ptr, ptr, ptr, ptr, ptr, ptr, ptr, i32, ptr, ptr, ptr, i32, ptr, ptr, ptr, ptr, ptr, ptr, [8 x ptr], [8 x ptr], ptr, ptr, ptr, ptr, ptr, ptr, ptr, double, double, double, i32, i8, i8, i8, i8, i8, i8, i8, i32, ptr, ptr, i32, i8, i8, i32, ptr, ptr, ptr, ptr, ptr, ptr, i8, ptr }
%struct.List = type { i32, i32, i32, ptr, [0 x %union.ListCell] }
%struct.EquivalenceClass = type { i32, ptr, i32, ptr, ptr, ptr, ptr, i8, i8, i8, i32, i32, i32, ptr }
%struct.RelOptInfo = type { i32, i32, ptr, double, i8, i8, i8, ptr, ptr, ptr, ptr, ptr, ptr, ptr, ptr, ptr, ptr, i32, i32, i32, i16, i16, ptr, ptr, ptr, ptr, ptr, ptr, ptr, ptr, i32, double, double, ptr, ptr, ptr, i32, i32, i32, i32, i8, ptr, ptr, ptr, ptr, ptr, %struct.QualCost, i32, ptr, i8, i8, ptr, ptr, ptr, ptr, i32, ptr, i8, ptr, ptr, ptr, ptr, ptr, ptr }

; Function Attrs: inlinehint nounwind uwtable
define internal ptr @list_nth_cell(ptr noundef %0, i32 noundef %1) #2 {
  %3 = alloca ptr, align 8
  %4 = alloca i32, align 4
  store ptr %0, ptr %3, align 8
  store i32 %1, ptr %4, align 4
  %5 = load ptr, ptr %3, align 8
  %6 = getelementptr inbounds nuw %struct.List, ptr %5, i32 0, i32 3
  %7 = load ptr, ptr %6, align 8
  %8 = load i32, ptr %4, align 4
  %9 = sext i32 %8 to i64
  %10 = getelementptr inbounds %union.ListCell, ptr %7, i64 %9
  ret ptr %10
}

; Function Attrs: inlinehint nounwind uwtable
define internal i32 @list_length(ptr noundef %0) #2 {
  %2 = alloca ptr, align 8
  store ptr %0, ptr %2, align 8
  %3 = load ptr, ptr %2, align 8
  %4 = icmp ne ptr %3, null
  br i1 %4, label %5, label %9

5:                                                ; preds = %1
  %6 = load ptr, ptr %2, align 8
  %7 = getelementptr inbounds nuw %struct.List, ptr %6, i32 0, i32 1
  %8 = load i32, ptr %7, align 4
  br label %10

9:                                                ; preds = %1
  br label %10

10:                                               ; preds = %9, %5
  %11 = phi i32 [ %8, %5 ], [ 0, %9 ]
  ret i32 %11
}

; Function Attrs: inlinehint nounwind uwtable
define internal ptr @list_nth(ptr noundef %0, i32 noundef %1) #2 {
  %3 = alloca ptr, align 8
  %4 = alloca i32, align 4
  store ptr %0, ptr %3, align 8
  store i32 %1, ptr %4, align 4
  %5 = load ptr, ptr %3, align 8
  %6 = load i32, ptr %4, align 4
  %7 = call ptr @list_nth_cell(ptr noundef %5, i32 noundef %6)
  %8 = load ptr, ptr %7, align 8
  ret ptr %8
}

; Function Attrs: nounwind uwtable
define internal ptr @get_eclass_indexes_for_relids(ptr noundef %0, ptr noundef %1) #0 {
  %3 = alloca ptr, align 8
  %4 = alloca ptr, align 8
  %5 = alloca ptr, align 8
  %6 = alloca i32, align 4
  %7 = alloca ptr, align 8
  %8 = alloca i32, align 4
  store ptr %0, ptr %3, align 8
  store ptr %1, ptr %4, align 8
  call void @llvm.lifetime.start.p0(i64 8, ptr %5) #6
  store ptr null, ptr %5, align 8
  call void @llvm.lifetime.start.p0(i64 4, ptr %6) #6
  store i32 -1, ptr %6, align 4
  br label %9

9:                                                ; preds = %40, %38, %2
  %10 = load ptr, ptr %4, align 8
  %11 = load i32, ptr %6, align 4
  %12 = call i32 @bms_next_member(ptr noundef %10, i32 noundef %11)
  store i32 %12, ptr %6, align 4
  %13 = icmp sgt i32 %12, 0
  br i1 %13, label %14, label %41

14:                                               ; preds = %9
  call void @llvm.lifetime.start.p0(i64 8, ptr %7) #6
  %15 = load ptr, ptr %3, align 8
  %16 = getelementptr inbounds nuw %struct.PlannerInfo, ptr %15, i32 0, i32 7
  %17 = load ptr, ptr %16, align 8
  %18 = load i32, ptr %6, align 4
  %19 = sext i32 %18 to i64
  %20 = getelementptr inbounds ptr, ptr %17, i64 %19
  %21 = load ptr, ptr %20, align 8
  store ptr %21, ptr %7, align 8
  %22 = load i32, ptr %6, align 4
  %23 = load ptr, ptr %3, align 8
  %24 = getelementptr inbounds nuw %struct.PlannerInfo, ptr %23, i32 0, i32 68
  %25 = load i32, ptr %24, align 4
  %26 = icmp eq i32 %22, %25
  br i1 %26, label %27, label %28

27:                                               ; preds = %14
  store i32 2, ptr %8, align 4
  br label %38, !llvm.loop !26

28:                                               ; preds = %14
  %29 = load ptr, ptr %7, align 8
  %30 = icmp eq ptr %29, null
  br i1 %30, label %31, label %32

31:                                               ; preds = %28
  store i32 2, ptr %8, align 4
  br label %38, !llvm.loop !26

32:                                               ; preds = %28
  %33 = load ptr, ptr %5, align 8
  %34 = load ptr, ptr %7, align 8
  %35 = getelementptr inbounds nuw %struct.RelOptInfo, ptr %34, i32 0, i32 33
  %36 = load ptr, ptr %35, align 8
  %37 = call ptr @bms_add_members(ptr noundef %33, ptr noundef %36)
  store ptr %37, ptr %5, align 8
  store i32 0, ptr %8, align 4
  br label %38

38:                                               ; preds = %32, %31, %27
  call void @llvm.lifetime.end.p0(i64 8, ptr %7) #6
  %39 = load i32, ptr %8, align 4
  switch i32 %39, label %43 [
    i32 0, label %40
    i32 2, label %9
  ]

40:                                               ; preds = %38
  br label %9, !llvm.loop !26

41:                                               ; preds = %9
  %42 = load ptr, ptr %5, align 8
  store i32 1, ptr %8, align 4
  call void @llvm.lifetime.end.p0(i64 4, ptr %6) #6
  call void @llvm.lifetime.end.p0(i64 8, ptr %5) #6
  ret ptr %42

43:                                               ; preds = %38
  unreachable
}

; Function Attrs: nounwind uwtable
define dso_local zeroext i1 @has_relevant_eclass_joinclause(ptr noundef %0, ptr noundef %1) #0 {
  %3 = alloca i1, align 1
  %4 = alloca ptr, align 8
  %5 = alloca ptr, align 8
  %6 = alloca ptr, align 8
  %7 = alloca i32, align 4
  %8 = alloca ptr, align 8
  %9 = alloca i32, align 4
  store ptr %0, ptr %4, align 8
  store ptr %1, ptr %5, align 8
  call void @llvm.lifetime.start.p0(i64 8, ptr %6) #6
  call void @llvm.lifetime.start.p0(i64 4, ptr %7) #6
  %10 = load ptr, ptr %4, align 8
  %11 = load ptr, ptr %5, align 8
  %12 = getelementptr inbounds nuw %struct.RelOptInfo, ptr %11, i32 0, i32 2
  %13 = load ptr, ptr %12, align 8
  %14 = call ptr @get_eclass_indexes_for_relids(ptr noundef %10, ptr noundef %13)
  store ptr %14, ptr %6, align 8
  store i32 -1, ptr %7, align 4
  br label %15

15:                                               ; preds = %44, %42, %2
  %16 = load ptr, ptr %6, align 8
  %17 = load i32, ptr %7, align 4
  %18 = call i32 @bms_next_member(ptr noundef %16, i32 noundef %17)
  store i32 %18, ptr %7, align 4
  %19 = icmp sge i32 %18, 0
  br i1 %19, label %20, label %45

20:                                               ; preds = %15
  call void @llvm.lifetime.start.p0(i64 8, ptr %8) #6
  %21 = load ptr, ptr %4, align 8
  %22 = getelementptr inbounds nuw %struct.PlannerInfo, ptr %21, i32 0, i32 22
  %23 = load ptr, ptr %22, align 8
  %24 = load i32, ptr %7, align 4
  %25 = call ptr @list_nth(ptr noundef %23, i32 noundef %24)
  store ptr %25, ptr %8, align 8
  %26 = load ptr, ptr %8, align 8
  %27 = getelementptr inbounds nuw %struct.EquivalenceClass, ptr %26, i32 0, i32 3
  %28 = load ptr, ptr %27, align 8
  %29 = call i32 @list_length(ptr noundef %28)
  %30 = icmp sle i32 %29, 1
  br i1 %30, label %31, label %32

31:                                               ; preds = %20
  store i32 2, ptr %9, align 4
  br label %42, !llvm.loop !66

32:                                               ; preds = %20
  %33 = load ptr, ptr %8, align 8
  %34 = getelementptr inbounds nuw %struct.EquivalenceClass, ptr %33, i32 0, i32 6
  %35 = load ptr, ptr %34, align 8
  %36 = load ptr, ptr %5, align 8
  %37 = getelementptr inbounds nuw %struct.RelOptInfo, ptr %36, i32 0, i32 2
  %38 = load ptr, ptr %37, align 8
  %39 = call zeroext i1 @bms_is_subset(ptr noundef %35, ptr noundef %38)
  br i1 %39, label %41, label %40

40:                                               ; preds = %32
  store i1 true, ptr %3, align 1
  store i32 1, ptr %9, align 4
  br label %42

41:                                               ; preds = %32
  store i32 0, ptr %9, align 4
  br label %42

42:                                               ; preds = %41, %40, %31
  call void @llvm.lifetime.end.p0(i64 8, ptr %8) #6
  %43 = load i32, ptr %9, align 4
  switch i32 %43, label %46 [
    i32 0, label %44
    i32 2, label %15
  ]

44:                                               ; preds = %42
  br label %15, !llvm.loop !66

45:                                               ; preds = %15
  store i1 false, ptr %3, align 1
  store i32 1, ptr %9, align 4
  br label %46

46:                                               ; preds = %45, %42
  call void @llvm.lifetime.end.p0(i64 4, ptr %7) #6
  call void @llvm.lifetime.end.p0(i64 8, ptr %6) #6
  %47 = load i1, ptr %3, align 1
  ret i1 %47
}