; Function Attrs: nounwind uwtable
define dso_local noundef zeroext i1 @has_relevant_eclass_joinclause(ptr noundef readonly captures(none) %0, ptr noundef readonly captures(none) %1) local_unnamed_addr #0 {
  %3 = getelementptr inbounds nuw i8, ptr %1, i64 8
  %4 = load ptr, ptr %3, align 8
  %5 = tail call i32 @bms_next_member(ptr noundef %4, i32 noundef -1) #8
  %6 = icmp sgt i32 %5, 0
  br i1 %6, label %.lr.ph.i, label %get_eclass_indexes_for_relids.exit

.lr.ph.i:                                         ; preds = %2
  %7 = getelementptr inbounds nuw i8, ptr %0, i64 56
  %8 = getelementptr inbounds nuw i8, ptr %0, i64 604
  br label %9

9:                                                ; preds = %22, %.lr.ph.i
  %10 = phi i32 [ %5, %.lr.ph.i ], [ %23, %22 ]
  %.012.i = phi ptr [ null, %.lr.ph.i ], [ %.1.i, %22 ]
  %11 = load ptr, ptr %7, align 8
  %12 = zext nneg i32 %10 to i64
  %13 = getelementptr inbounds nuw ptr, ptr %11, i64 %12
  %14 = load ptr, ptr %13, align 8
  %15 = load i32, ptr %8, align 4
  %16 = icmp eq i32 %10, %15
  %17 = icmp eq ptr %14, null
  %or.cond.i = select i1 %16, i1 true, i1 %17
  br i1 %or.cond.i, label %22, label %18, !llvm.loop !11

18:                                               ; preds = %9
  %19 = getelementptr inbounds nuw i8, ptr %14, i64 216
  %20 = load ptr, ptr %19, align 8
  %21 = tail call ptr @bms_add_members(ptr noundef %.012.i, ptr noundef %20) #8
  br label %22

22:                                               ; preds = %18, %9
  %.1.i = phi ptr [ %21, %18 ], [ %.012.i, %9 ]
  %23 = tail call i32 @bms_next_member(ptr noundef %4, i32 noundef %10) #8
  %24 = icmp sgt i32 %23, 0
  br i1 %24, label %9, label %get_eclass_indexes_for_relids.exit

get_eclass_indexes_for_relids.exit:               ; preds = %22, %2
  %.0.lcssa.i = phi ptr [ null, %2 ], [ %.1.i, %22 ]
  %25 = tail call i32 @bms_next_member(ptr noundef %.0.lcssa.i, i32 noundef -1) #8
  %26 = icmp sgt i32 %25, -1
  br i1 %26, label %.lr.ph, label %.thread

.lr.ph:                                           ; preds = %get_eclass_indexes_for_relids.exit
  %27 = getelementptr inbounds nuw i8, ptr %0, i64 176
  br label %28

28:                                               ; preds = %.lr.ph, %list_length.exit.thread
  %29 = phi i32 [ %25, %.lr.ph ], [ %45, %list_length.exit.thread ]
  %30 = load ptr, ptr %27, align 8
  %31 = getelementptr i8, ptr %30, i64 16
  %.val = load ptr, ptr %31, align 8
  %32 = zext nneg i32 %29 to i64
  %33 = getelementptr inbounds nuw %union.ListCell, ptr %.val, i64 %32
  %34 = load ptr, ptr %33, align 8
  %35 = getelementptr inbounds nuw i8, ptr %34, i64 24
  %36 = load ptr, ptr %35, align 8
  %.not.i = icmp eq ptr %36, null
  br i1 %.not.i, label %list_length.exit.thread, label %list_length.exit

list_length.exit:                                 ; preds = %28
  %37 = getelementptr inbounds nuw i8, ptr %36, i64 4
  %38 = load i32, ptr %37, align 4
  %39 = icmp slt i32 %38, 2
  br i1 %39, label %list_length.exit.thread, label %40, !llvm.loop !28

40:                                               ; preds = %list_length.exit
  %41 = getelementptr inbounds nuw i8, ptr %34, i64 48
  %42 = load ptr, ptr %41, align 8
  %43 = load ptr, ptr %3, align 8
  %44 = tail call zeroext i1 @bms_is_subset(ptr noundef %42, ptr noundef %43) #8
  br i1 %44, label %list_length.exit.thread, label %.thread

list_length.exit.thread:                          ; preds = %40, %28, %list_length.exit
  %45 = tail call i32 @bms_next_member(ptr noundef %.0.lcssa.i, i32 noundef %29) #8
  %46 = icmp sgt i32 %45, -1
  br i1 %46, label %28, label %.thread

.thread:                                          ; preds = %list_length.exit.thread, %40, %get_eclass_indexes_for_relids.exit
  %.lcssa = phi i1 [ false, %get_eclass_indexes_for_relids.exit ], [ true, %40 ], [ false, %list_length.exit.thread ]
  ret i1 %.lcssa
}